target datalayout = "e-m:e-p270:32:32-p271:32:32-p272:64:64-i64:64-i128:128-f80:128-n8:16:32:64-S128"
target triple = "x86_64-pc-linux-gnu"

; Function Attrs: nounwind sspstrong uwtable
define internal i64 @fun_so_iso2022jp_decoder(ptr noundef %0, ptr noundef %1, i64 noundef %2, ptr noundef %3, i64 noundef %4) #0 {
  %6 = alloca i64, align 8
  %7 = alloca ptr, align 8
  %8 = alloca ptr, align 8
  %9 = alloca i64, align 8
  %10 = alloca ptr, align 8
  %11 = alloca i64, align 8
  %12 = alloca ptr, align 8
  %13 = alloca i32, align 4
  store ptr %0, ptr %7, align 8, !tbaa !6
  store ptr %1, ptr %8, align 8, !tbaa !10
  store i64 %2, ptr %9, align 8, !tbaa !13
  store ptr %3, ptr %10, align 8, !tbaa !10
  store i64 %4, ptr %11, align 8, !tbaa !13
  call void @llvm.lifetime.start.p0(i64 8, ptr %12) #3
  %14 = load ptr, ptr %7, align 8, !tbaa !6
  store ptr %14, ptr %12, align 8, !tbaa !10
  %15 = load ptr, ptr %8, align 8, !tbaa !10
  %16 = getelementptr inbounds i8, ptr %15, i64 0
  %17 = load i8, ptr %16, align 1, !tbaa !12
  %18 = zext i8 %17 to i32
  %19 = icmp eq i32 %18, 27
  br i1 %19, label %20, label %49

20:                                               ; preds = %5
  %21 = load ptr, ptr %8, align 8, !tbaa !10
  %22 = getelementptr inbounds i8, ptr %21, i64 1
  %23 = load i8, ptr %22, align 1, !tbaa !12
  %24 = zext i8 %23 to i32
  %25 = icmp eq i32 %24, 40
  br i1 %25, label %26, label %36

26:                                               ; preds = %20
  %27 = load ptr, ptr %8, align 8, !tbaa !10
  %28 = load i64, ptr %9, align 8, !tbaa !13
  %29 = sub i64 %28, 1
  %30 = getelementptr inbounds nuw i8, ptr %27, i64 %29
  %31 = load i8, ptr %30, align 1, !tbaa !12
  %32 = zext i8 %31 to i32
  switch i32 %32, label %35 [
    i32 66, label %33
    i32 74, label %33
  ]

33:                                               ; preds = %26, %26
  %34 = load ptr, ptr %12, align 8, !tbaa !10
  store i8 0, ptr %34, align 1, !tbaa !12
  br label %35

35:                                               ; preds = %26, %33
  br label %48

36:                                               ; preds = %20
  %37 = load ptr, ptr %8, align 8, !tbaa !10
  %38 = load i64, ptr %9, align 8, !tbaa !13
  %39 = sub i64 %38, 1
  %40 = getelementptr inbounds nuw i8, ptr %37, i64 %39
  %41 = load i8, ptr %40, align 1, !tbaa !12
  %42 = zext i8 %41 to i32
  switch i32 %42, label %47 [
    i32 64, label %43
    i32 66, label %45
  ]

43:                                               ; preds = %36
  %44 = load ptr, ptr %12, align 8, !tbaa !10
  store i8 1, ptr %44, align 1, !tbaa !12
  br label %47

45:                                               ; preds = %36
  %46 = load ptr, ptr %12, align 8, !tbaa !10
  store i8 2, ptr %46, align 1, !tbaa !12
  br label %47

47:                                               ; preds = %36, %45, %43
  br label %48

48:                                               ; preds = %47, %35
  store i64 0, ptr %6, align 8
  store i32 1, ptr %13, align 4
  br label %77

49:                                               ; preds = %5
  %50 = load ptr, ptr %12, align 8, !tbaa !10
  %51 = load i8, ptr %50, align 1, !tbaa !12
  %52 = zext i8 %51 to i32
  %53 = icmp eq i32 %52, 1
  br i1 %53, label %54, label %57

54:                                               ; preds = %49
  %55 = load ptr, ptr %10, align 8, !tbaa !10
  %56 = getelementptr inbounds i8, ptr %55, i64 0
  store i8 -112, ptr %56, align 1, !tbaa !12
  br label %60

57:                                               ; preds = %49
  %58 = load ptr, ptr %10, align 8, !tbaa !10
  %59 = getelementptr inbounds i8, ptr %58, i64 0
  store i8 -110, ptr %59, align 1, !tbaa !12
  br label %60

60:                                               ; preds = %57, %54
  %61 = load ptr, ptr %8, align 8, !tbaa !10
  %62 = getelementptr inbounds i8, ptr %61, i64 0
  %63 = load i8, ptr %62, align 1, !tbaa !12
  %64 = zext i8 %63 to i32
  %65 = or i32 %64, 128
  %66 = trunc i32 %65 to i8
  %67 = load ptr, ptr %10, align 8, !tbaa !10
  %68 = getelementptr inbounds i8, ptr %67, i64 1
  store i8 %66, ptr %68, align 1, !tbaa !12
  %69 = load ptr, ptr %8, align 8, !tbaa !10
  %70 = getelementptr inbounds i8, ptr %69, i64 1
  %71 = load i8, ptr %70, align 1, !tbaa !12
  %72 = zext i8 %71 to i32
  %73 = or i32 %72, 128
  %74 = trunc i32 %73 to i8
  %75 = load ptr, ptr %10, align 8, !tbaa !10
  %76 = getelementptr inbounds i8, ptr %75, i64 2
  store i8 %74, ptr %76, align 1, !tbaa !12
  store i64 3, ptr %6, align 8
  store i32 1, ptr %13, align 4
  br label %77

77:                                               ; preds = %60, %48
  call void @llvm.lifetime.end.p0(i64 8, ptr %12) #3
  %78 = load i64, ptr %6, align 8
  ret i64 %78
}