; Function Attrs: mustprogress nofree norecurse nosync nounwind sspstrong willreturn memory(argmem: readwrite) uwtable
define internal range(i64 0, 4) i64 @fun_so_iso2022jp_decoder(ptr noundef captures(none) %0, ptr noundef readonly captures(none) %1, i64 noundef %2, ptr noundef writeonly captures(none) %3, i64 %4) #4 {
  %6 = load i8, ptr %1, align 1, !tbaa !6
  %7 = icmp eq i8 %6, 27
  br i1 %7, label %8, label %20

8:                                                ; preds = %5
  %9 = getelementptr inbounds nuw i8, ptr %1, i64 1
  %10 = load i8, ptr %9, align 1, !tbaa !6
  %11 = icmp eq i8 %10, 40
  %12 = getelementptr i8, ptr %1, i64 %2
  %13 = getelementptr i8, ptr %12, i64 -1
  %14 = load i8, ptr %13, align 1, !tbaa !6
  br i1 %11, label %15, label %17

15:                                               ; preds = %8
  switch i8 %14, label %30 [
    i8 66, label %16
    i8 74, label %16
  ]

16:                                               ; preds = %15, %15
  store i8 0, ptr %0, align 1, !tbaa !6
  br label %30

17:                                               ; preds = %8
  switch i8 %14, label %30 [
    i8 64, label %18
    i8 66, label %19
  ]

18:                                               ; preds = %17
  store i8 1, ptr %0, align 1, !tbaa !6
  br label %30

19:                                               ; preds = %17
  store i8 2, ptr %0, align 1, !tbaa !6
  br label %30

20:                                               ; preds = %5
  %21 = load i8, ptr %0, align 1, !tbaa !6
  %22 = icmp eq i8 %21, 1
  %. = select i1 %22, i8 -112, i8 -110
  store i8 %., ptr %3, align 1, !tbaa !6
  %23 = load i8, ptr %1, align 1, !tbaa !6
  %24 = or i8 %23, -128
  %25 = getelementptr inbounds nuw i8, ptr %3, i64 1
  store i8 %24, ptr %25, align 1, !tbaa !6
  %26 = getelementptr inbounds nuw i8, ptr %1, i64 1
  %27 = load i8, ptr %26, align 1, !tbaa !6
  %28 = or i8 %27, -128
  %29 = getelementptr inbounds nuw i8, ptr %3, i64 2
  store i8 %28, ptr %29, align 1, !tbaa !6
  br label %30

30:                                               ; preds = %16, %15, %19, %18, %17, %20
  %.0 = phi i64 [ 3, %20 ], [ 0, %17 ], [ 0, %18 ], [ 0, %19 ], [ 0, %15 ], [ 0, %16 ]
  ret i64 %.0
}